; Function Attrs: mustprogress uwtable
define noundef range(i64 -64, 6) i64 @_ZN11duckdb_zstd26ZSTD_initDStream_usingDictEPNS_11ZSTD_DCtx_sEPKvm(ptr noundef captures(none) initializes((30176, 30180), (30192, 30200), (30208, 30212), (30236, 30240), (30316, 30320)) %0, ptr noundef %1, i64 noundef %2) local_unnamed_addr #0 {
  %4 = getelementptr inbounds nuw i8, ptr %0, i64 30236
  store i32 0, ptr %4, align 4, !tbaa !129
  %5 = getelementptr inbounds nuw i8, ptr %0, i64 30316
  store i32 0, ptr %5, align 4, !tbaa !34
  %6 = getelementptr inbounds nuw i8, ptr %0, i64 30176
  store i32 1, ptr %6, align 8, !tbaa !36
  %7 = getelementptr inbounds nuw i8, ptr %0, i64 30184
  %8 = load ptr, ptr %7, align 8, !tbaa !3
  %9 = tail call noundef i64 @_ZN11duckdb_zstd14ZSTD_freeDDictEPNS_12ZSTD_DDict_sE(ptr noundef %8)
  %10 = getelementptr inbounds nuw i8, ptr %0, i64 30208
  store i32 0, ptr %10, align 8, !tbaa !33
  tail call void @llvm.memset.p0.i64(ptr noundef nonnull align 8 dereferenceable(16) %7, i8 0, i64 16, i1 false)
  %11 = icmp ne ptr %1, null
  %12 = icmp ne i64 %2, 0
  %or.cond.i.i = and i1 %11, %12
  br i1 %or.cond.i.i, label %13, label %19

13:                                               ; preds = %3
  %14 = getelementptr inbounds nuw i8, ptr %0, i64 30128
  %15 = tail call noundef ptr @_ZN11duckdb_zstd25ZSTD_createDDict_advancedEPKvmNS_21ZSTD_dictLoadMethod_eENS_22ZSTD_dictContentType_eENS_14ZSTD_customMemE(ptr noundef nonnull %1, i64 noundef %2, i32 noundef 0, i32 noundef 0, ptr noundef nonnull byval(%"struct.duckdb_zstd::ZSTD_customMem") align 8 %14)
  store ptr %15, ptr %7, align 8, !tbaa !3
  %16 = icmp eq ptr %15, null
  br i1 %16, label %_ZN11duckdb_zstd24ZSTD_DCtx_loadDictionaryEPNS_11ZSTD_DCtx_sEPKvm.exit, label %17

17:                                               ; preds = %13
  %18 = getelementptr inbounds nuw i8, ptr %0, i64 30192
  store ptr %15, ptr %18, align 8, !tbaa !111
  store i32 -1, ptr %10, align 8, !tbaa !33
  br label %19

19:                                               ; preds = %17, %3
  %20 = getelementptr inbounds nuw i8, ptr %0, i64 30104
  %21 = load i32, ptr %20, align 8, !tbaa !42
  %22 = icmp eq i32 %21, 0
  %23 = select i1 %22, i64 5, i64 1
  br label %_ZN11duckdb_zstd24ZSTD_DCtx_loadDictionaryEPNS_11ZSTD_DCtx_sEPKvm.exit

_ZN11duckdb_zstd24ZSTD_DCtx_loadDictionaryEPNS_11ZSTD_DCtx_sEPKvm.exit: ; preds = %13, %19
  %.1 = phi i64 [ %23, %19 ], [ -64, %13 ]
  ret i64 %.1
}